
_hgr_computation.o:     file format elf64-x86-64


Disassembly of section .text:

0000000000000000 <hgr_prem_memphase>:
   0:	55                   	push   %rbp
   1:	48 89 e5             	mov    %rsp,%rbp
   4:	48 83 ec 40          	sub    $0x40,%rsp
   8:	48 89 7d c8          	mov    %rdi,-0x38(%rbp)
   c:	48 8b 45 c8          	mov    -0x38(%rbp),%rax
  10:	8b 40 04             	mov    0x4(%rax),%eax
  13:	89 45 dc             	mov    %eax,-0x24(%rbp)
  16:	48 8b 45 c8          	mov    -0x38(%rbp),%rax
  1a:	48 8b 40 10          	mov    0x10(%rax),%rax
  1e:	8b 55 dc             	mov    -0x24(%rbp),%edx
  21:	48 63 ca             	movslq %edx,%rcx
  24:	48 99                	cqto   
  26:	48 f7 f9             	idiv   %rcx
  29:	48 89 45 e8          	mov    %rax,-0x18(%rbp)
  2d:	bf 00 00 00 00       	mov    $0x0,%edi
  32:	e8 00 00 00 00       	callq  37 <hgr_prem_memphase+0x37>
  37:	c7 45 d8 00 00 00 00 	movl   $0x0,-0x28(%rbp)
  3e:	e9 8a 00 00 00       	jmpq   cd <hgr_prem_memphase+0xcd>
  43:	83 7d dc 01          	cmpl   $0x1,-0x24(%rbp)
  47:	75 18                	jne    61 <hgr_prem_memphase+0x61>
  49:	48 8b 45 c8          	mov    -0x38(%rbp),%rax
  4d:	48 8b 50 20          	mov    0x20(%rax),%rdx
  51:	8b 45 d8             	mov    -0x28(%rbp),%eax
  54:	48 98                	cltq   
  56:	48 01 d0             	add    %rdx,%rax
  59:	0f b6 00             	movzbl (%rax),%eax
  5c:	88 45 d3             	mov    %al,-0x2d(%rbp)
  5f:	eb 68                	jmp    c9 <hgr_prem_memphase+0xc9>
  61:	83 7d dc 04          	cmpl   $0x4,-0x24(%rbp)
  65:	75 1c                	jne    83 <hgr_prem_memphase+0x83>
  67:	48 8b 45 c8          	mov    -0x38(%rbp),%rax
  6b:	48 8b 40 28          	mov    0x28(%rax),%rax
  6f:	8b 55 d8             	mov    -0x28(%rbp),%edx
  72:	48 63 d2             	movslq %edx,%rdx
  75:	48 c1 e2 02          	shl    $0x2,%rdx
  79:	48 01 d0             	add    %rdx,%rax
  7c:	8b 00                	mov    (%rax),%eax
  7e:	89 45 d4             	mov    %eax,-0x2c(%rbp)
  81:	eb 46                	jmp    c9 <hgr_prem_memphase+0xc9>
  83:	83 7d dc 08          	cmpl   $0x8,-0x24(%rbp)
  87:	75 20                	jne    a9 <hgr_prem_memphase+0xa9>
  89:	48 8b 45 c8          	mov    -0x38(%rbp),%rax
  8d:	48 8b 40 30          	mov    0x30(%rax),%rax
  91:	8b 55 d8             	mov    -0x28(%rbp),%edx
  94:	48 63 d2             	movslq %edx,%rdx
  97:	48 c1 e2 03          	shl    $0x3,%rdx
  9b:	48 01 d0             	add    %rdx,%rax
  9e:	f2 0f 10 00          	movsd  (%rax),%xmm0
  a2:	f2 0f 11 45 e0       	movsd  %xmm0,-0x20(%rbp)
  a7:	eb 20                	jmp    c9 <hgr_prem_memphase+0xc9>
  a9:	83 7d dc 10          	cmpl   $0x10,-0x24(%rbp)
  ad:	75 1a                	jne    c9 <hgr_prem_memphase+0xc9>
  af:	48 8b 45 c8          	mov    -0x38(%rbp),%rax
  b3:	48 8b 40 38          	mov    0x38(%rax),%rax
  b7:	8b 55 d8             	mov    -0x28(%rbp),%edx
  ba:	48 63 d2             	movslq %edx,%rdx
  bd:	48 c1 e2 04          	shl    $0x4,%rdx
  c1:	48 01 d0             	add    %rdx,%rax
  c4:	db 28                	fldt   (%rax)
  c6:	db 7d f0             	fstpt  -0x10(%rbp)
  c9:	83 45 d8 01          	addl   $0x1,-0x28(%rbp)
  cd:	8b 45 d8             	mov    -0x28(%rbp),%eax
  d0:	48 98                	cltq   
  d2:	48 3b 45 e8          	cmp    -0x18(%rbp),%rax
  d6:	0f 8c 67 ff ff ff    	jl     43 <hgr_prem_memphase+0x43>
  dc:	bf 00 00 00 00       	mov    $0x0,%edi
  e1:	e8 00 00 00 00       	callq  e6 <hgr_prem_memphase+0xe6>
  e6:	90                   	nop
  e7:	c9                   	leaveq 
  e8:	c3                   	retq   

00000000000000e9 <hgr_compute_task>:
  e9:	55                   	push   %rbp
  ea:	48 89 e5             	mov    %rsp,%rbp
  ed:	48 89 7d e8          	mov    %rdi,-0x18(%rbp)
  f1:	48 c7 45 f8 00 00 00 	movq   $0x0,-0x8(%rbp)
  f8:	00 
  f9:	48 c7 45 f8 00 00 00 	movq   $0x0,-0x8(%rbp)
 100:	00 
 101:	eb 05                	jmp    108 <hgr_compute_task+0x1f>
 103:	48 83 45 f8 01       	addq   $0x1,-0x8(%rbp)
 108:	48 8b 45 f8          	mov    -0x8(%rbp),%rax
 10c:	48 3b 45 e8          	cmp    -0x18(%rbp),%rax
 110:	7c f1                	jl     103 <hgr_compute_task+0x1a>
 112:	90                   	nop
 113:	5d                   	pop    %rbp
 114:	c3                   	retq   

0000000000000115 <hgr_compute_sparse_task>:
 115:	55                   	push   %rbp
 116:	48 89 e5             	mov    %rsp,%rbp
 119:	48 81 ec b0 00 00 00 	sub    $0xb0,%rsp
 120:	48 89 bd 68 ff ff ff 	mov    %rdi,-0x98(%rbp)
 127:	48 89 b5 60 ff ff ff 	mov    %rsi,-0xa0(%rbp)
 12e:	64 48 8b 04 25 28 00 	mov    %fs:0x28,%rax
 135:	00 00 
 137:	48 89 45 f8          	mov    %rax,-0x8(%rbp)
 13b:	31 c0                	xor    %eax,%eax
 13d:	48 8b 85 68 ff ff ff 	mov    -0x98(%rbp),%rax
 144:	8b 40 04             	mov    0x4(%rax),%eax
 147:	89 45 80             	mov    %eax,-0x80(%rbp)
 14a:	48 8b 85 68 ff ff ff 	mov    -0x98(%rbp),%rax
 151:	48 8b 40 10          	mov    0x10(%rax),%rax
 155:	8b 55 80             	mov    -0x80(%rbp),%edx
 158:	48 63 f2             	movslq %edx,%rsi
 15b:	48 99                	cqto   
 15d:	48 f7 fe             	idiv   %rsi
 160:	48 89 45 a8          	mov    %rax,-0x58(%rbp)
 164:	48 8b 85 68 ff ff ff 	mov    -0x98(%rbp),%rax
 16b:	8b 40 08             	mov    0x8(%rax),%eax
 16e:	89 45 84             	mov    %eax,-0x7c(%rbp)
 171:	48 8b 85 60 ff ff ff 	mov    -0xa0(%rbp),%rax
 178:	ba 00 00 00 00       	mov    $0x0,%edx
 17d:	48 f7 75 a8          	divq   -0x58(%rbp)
 181:	48 89 45 b0          	mov    %rax,-0x50(%rbp)
 185:	48 c7 45 c0 00 00 00 	movq   $0x0,-0x40(%rbp)
 18c:	00 
 18d:	48 c7 45 c8 00 00 00 	movq   $0x0,-0x38(%rbp)
 194:	00 
 195:	48 c7 45 d0 00 00 00 	movq   $0x0,-0x30(%rbp)
 19c:	00 
 19d:	48 c7 45 d8 00 00 00 	movq   $0x0,-0x28(%rbp)
 1a4:	00 
 1a5:	48 8d 45 c0          	lea    -0x40(%rbp),%rax
 1a9:	48 89 c6             	mov    %rax,%rsi
 1ac:	bf 01 00 00 00       	mov    $0x1,%edi
 1b1:	e8 00 00 00 00       	callq  1b6 <hgr_compute_sparse_task+0xa1>
 1b6:	83 7d 84 00          	cmpl   $0x0,-0x7c(%rbp)
 1ba:	75 19                	jne    1d5 <hgr_compute_sparse_task+0xc0>
 1bc:	48 8b 55 a8          	mov    -0x58(%rbp),%rdx
 1c0:	48 8b 45 a8          	mov    -0x58(%rbp),%rax
 1c4:	48 89 d6             	mov    %rdx,%rsi
 1c7:	48 89 c7             	mov    %rax,%rdi
 1ca:	e8 00 00 00 00       	callq  1cf <hgr_compute_sparse_task+0xba>
 1cf:	48 89 45 a0          	mov    %rax,-0x60(%rbp)
 1d3:	eb 15                	jmp    1ea <hgr_compute_sparse_task+0xd5>
 1d5:	48 8b 55 a8          	mov    -0x58(%rbp),%rdx
 1d9:	8b 45 84             	mov    -0x7c(%rbp),%eax
 1dc:	48 89 d6             	mov    %rdx,%rsi
 1df:	89 c7                	mov    %eax,%edi
 1e1:	e8 00 00 00 00       	callq  1e6 <hgr_compute_sparse_task+0xd1>
 1e6:	48 89 45 a0          	mov    %rax,-0x60(%rbp)
 1ea:	48 8d 45 d0          	lea    -0x30(%rbp),%rax
 1ee:	48 89 c6             	mov    %rax,%rsi
 1f1:	bf 01 00 00 00       	mov    $0x1,%edi
 1f6:	e8 00 00 00 00       	callq  1fb <hgr_compute_sparse_task+0xe6>
 1fb:	48 8b 45 d0          	mov    -0x30(%rbp),%rax
 1ff:	66 0f ef c9          	pxor   %xmm1,%xmm1
 203:	f2 48 0f 2a c8       	cvtsi2sd %rax,%xmm1
 208:	48 8b 45 d8          	mov    -0x28(%rbp),%rax
 20c:	66 0f ef c0          	pxor   %xmm0,%xmm0
 210:	f2 48 0f 2a c0       	cvtsi2sd %rax,%xmm0
 215:	f2 0f 10 15 00 00 00 	movsd  0x0(%rip),%xmm2        # 21d <hgr_compute_sparse_task+0x108>
 21c:	00 
 21d:	f2 0f 59 c2          	mulsd  %xmm2,%xmm0
 221:	f2 0f 58 c1          	addsd  %xmm1,%xmm0
 225:	48 8b 45 c0          	mov    -0x40(%rbp),%rax
 229:	66 0f ef d2          	pxor   %xmm2,%xmm2
 22d:	f2 48 0f 2a d0       	cvtsi2sd %rax,%xmm2
 232:	48 8b 45 c8          	mov    -0x38(%rbp),%rax
 236:	66 0f ef c9          	pxor   %xmm1,%xmm1
 23a:	f2 48 0f 2a c8       	cvtsi2sd %rax,%xmm1
 23f:	f2 0f 10 1d 00 00 00 	movsd  0x0(%rip),%xmm3        # 247 <hgr_compute_sparse_task+0x132>
 246:	00 
 247:	f2 0f 59 cb          	mulsd  %xmm3,%xmm1
 24b:	f2 0f 58 ca          	addsd  %xmm2,%xmm1
 24f:	f2 0f 5c c1          	subsd  %xmm1,%xmm0
 253:	f2 0f 10 0d 00 00 00 	movsd  0x0(%rip),%xmm1        # 25b <hgr_compute_sparse_task+0x146>
 25a:	00 
 25b:	f2 0f 59 c1          	mulsd  %xmm1,%xmm0
 25f:	f2 0f 11 45 b8       	movsd  %xmm0,-0x48(%rbp)
 264:	48 8b 45 b8          	mov    -0x48(%rbp),%rax
 268:	48 89 85 58 ff ff ff 	mov    %rax,-0xa8(%rbp)
 26f:	f2 0f 10 85 58 ff ff 	movsd  -0xa8(%rbp),%xmm0
 276:	ff 
 277:	bf 00 00 00 00       	mov    $0x0,%edi
 27c:	b8 01 00 00 00       	mov    $0x1,%eax
 281:	e8 00 00 00 00       	callq  286 <hgr_compute_sparse_task+0x171>
 286:	48 c7 45 90 00 00 00 	movq   $0x0,-0x70(%rbp)
 28d:	00 
 28e:	e9 fa 00 00 00       	jmpq   38d <hgr_compute_sparse_task+0x278>
 293:	83 7d 80 01          	cmpl   $0x1,-0x80(%rbp)
 297:	75 32                	jne    2cb <hgr_compute_sparse_task+0x1b6>
 299:	48 8b 85 68 ff ff ff 	mov    -0x98(%rbp),%rax
 2a0:	48 8b 50 20          	mov    0x20(%rax),%rdx
 2a4:	48 8b 45 90          	mov    -0x70(%rbp),%rax
 2a8:	48 8d 0c c5 00 00 00 	lea    0x0(,%rax,8),%rcx
 2af:	00 
 2b0:	48 8b 45 a0          	mov    -0x60(%rbp),%rax
 2b4:	48 01 c8             	add    %rcx,%rax
 2b7:	48 8b 00             	mov    (%rax),%rax
 2ba:	48 01 d0             	add    %rdx,%rax
 2bd:	0f b6 00             	movzbl (%rax),%eax
 2c0:	88 85 7b ff ff ff    	mov    %al,-0x85(%rbp)
 2c6:	e9 a4 00 00 00       	jmpq   36f <hgr_compute_sparse_task+0x25a>
 2cb:	83 7d 80 04          	cmpl   $0x4,-0x80(%rbp)
 2cf:	75 32                	jne    303 <hgr_compute_sparse_task+0x1ee>
 2d1:	48 8b 85 68 ff ff ff 	mov    -0x98(%rbp),%rax
 2d8:	48 8b 40 28          	mov    0x28(%rax),%rax
 2dc:	48 8b 55 90          	mov    -0x70(%rbp),%rdx
 2e0:	48 8d 0c d5 00 00 00 	lea    0x0(,%rdx,8),%rcx
 2e7:	00 
 2e8:	48 8b 55 a0          	mov    -0x60(%rbp),%rdx
 2ec:	48 01 ca             	add    %rcx,%rdx
 2ef:	48 8b 12             	mov    (%rdx),%rdx
 2f2:	48 c1 e2 02          	shl    $0x2,%rdx
 2f6:	48 01 d0             	add    %rdx,%rax
 2f9:	8b 00                	mov    (%rax),%eax
 2fb:	89 85 7c ff ff ff    	mov    %eax,-0x84(%rbp)
 301:	eb 6c                	jmp    36f <hgr_compute_sparse_task+0x25a>
 303:	83 7d 80 08          	cmpl   $0x8,-0x80(%rbp)
 307:	75 33                	jne    33c <hgr_compute_sparse_task+0x227>
 309:	48 8b 85 68 ff ff ff 	mov    -0x98(%rbp),%rax
 310:	48 8b 40 30          	mov    0x30(%rax),%rax
 314:	48 8b 55 90          	mov    -0x70(%rbp),%rdx
 318:	48 8d 0c d5 00 00 00 	lea    0x0(,%rdx,8),%rcx
 31f:	00 
 320:	48 8b 55 a0          	mov    -0x60(%rbp),%rdx
 324:	48 01 ca             	add    %rcx,%rdx
 327:	48 8b 12             	mov    (%rdx),%rdx
 32a:	48 c1 e2 03          	shl    $0x3,%rdx
 32e:	48 01 d0             	add    %rdx,%rax
 331:	f2 0f 10 00          	movsd  (%rax),%xmm0
 335:	f2 0f 11 45 88       	movsd  %xmm0,-0x78(%rbp)
 33a:	eb 33                	jmp    36f <hgr_compute_sparse_task+0x25a>
 33c:	83 7d 80 10          	cmpl   $0x10,-0x80(%rbp)
 340:	75 2d                	jne    36f <hgr_compute_sparse_task+0x25a>
 342:	48 8b 85 68 ff ff ff 	mov    -0x98(%rbp),%rax
 349:	48 8b 40 38          	mov    0x38(%rax),%rax
 34d:	48 8b 55 90          	mov    -0x70(%rbp),%rdx
 351:	48 8d 0c d5 00 00 00 	lea    0x0(,%rdx,8),%rcx
 358:	00 
 359:	48 8b 55 a0          	mov    -0x60(%rbp),%rdx
 35d:	48 01 ca             	add    %rcx,%rdx
 360:	48 8b 12             	mov    (%rdx),%rdx
 363:	48 c1 e2 04          	shl    $0x4,%rdx
 367:	48 01 d0             	add    %rdx,%rax
 36a:	db 28                	fldt   (%rax)
 36c:	db 7d e0             	fstpt  -0x20(%rbp)
 36f:	48 c7 45 98 00 00 00 	movq   $0x0,-0x68(%rbp)
 376:	00 
 377:	eb 05                	jmp    37e <hgr_compute_sparse_task+0x269>
 379:	48 83 45 98 01       	addq   $0x1,-0x68(%rbp)
 37e:	48 8b 45 98          	mov    -0x68(%rbp),%rax
 382:	48 3b 45 b0          	cmp    -0x50(%rbp),%rax
 386:	72 f1                	jb     379 <hgr_compute_sparse_task+0x264>
 388:	48 83 45 90 01       	addq   $0x1,-0x70(%rbp)
 38d:	48 8b 45 90          	mov    -0x70(%rbp),%rax
 391:	48 3b 45 a8          	cmp    -0x58(%rbp),%rax
 395:	0f 82 f8 fe ff ff    	jb     293 <hgr_compute_sparse_task+0x17e>
 39b:	90                   	nop
 39c:	48 8b 45 f8          	mov    -0x8(%rbp),%rax
 3a0:	64 48 33 04 25 28 00 	xor    %fs:0x28,%rax
 3a7:	00 00 
 3a9:	74 05                	je     3b0 <hgr_compute_sparse_task+0x29b>
 3ab:	e8 00 00 00 00       	callq  3b0 <hgr_compute_sparse_task+0x29b>
 3b0:	c9                   	leaveq 
 3b1:	c3                   	retq   

Disassembly of section .rodata:

0000000000000000 <.rodata>:
   0:	53                   	push   %rbx
   1:	54                   	push   %rsp
   2:	52                   	push   %rdx
   3:	49                   	rex.WB
   4:	44                   	rex.R
   5:	45 2f                	rex.RB (bad) 
   7:	52                   	push   %rdx
   8:	41                   	rex.B
   9:	4e                   	rex.WRX
   a:	44                   	rex.R
   b:	4f                   	rex.WRXB
   c:	4d 20 25 66 20 6d 69 	rex.WRB and %r12b,0x696d2066(%rip)        # 696d2079 <hgr_compute_sparse_task+0x696d1f64>
  13:	6c                   	insb   (%dx),%es:(%rdi)
  14:	69 73 65 63 6f 6e 64 	imul   $0x646e6f63,0x65(%rbx),%esi
  1b:	73 0a                	jae    27 <.rodata+0x27>
  1d:	00 00                	add    %al,(%rax)
  1f:	00 95 d6 26 e8 0b    	add    %dl,0xbe826d6(%rbp)
  25:	2e 11 3e             	adc    %edi,%cs:(%rsi)
  28:	00 00                	add    %al,(%rax)
  2a:	00 00                	add    %al,(%rax)
  2c:	00 40 8f             	add    %al,-0x71(%rax)
  2f:	40                   	rex

Disassembly of section .comment:

0000000000000000 <.comment>:
   0:	00 47 43             	add    %al,0x43(%rdi)
   3:	43 3a 20             	rex.XB cmp (%r8),%spl
   6:	28 55 62             	sub    %dl,0x62(%rbp)
   9:	75 6e                	jne    79 <hgr_prem_memphase+0x79>
   b:	74 75                	je     82 <hgr_prem_memphase+0x82>
   d:	20 35 2e 34 2e 30    	and    %dh,0x302e342e(%rip)        # 302e3441 <hgr_compute_sparse_task+0x302e332c>
  13:	2d 36 75 62 75       	sub    $0x75627536,%eax
  18:	6e                   	outsb  %ds:(%rsi),(%dx)
  19:	74 75                	je     90 <hgr_prem_memphase+0x90>
  1b:	31 7e 31             	xor    %edi,0x31(%rsi)
  1e:	36 2e 30 34 2e       	ss xor %dh,%cs:(%rsi,%rbp,1)
  23:	34 29                	xor    $0x29,%al
  25:	20 35 2e 34 2e 30    	and    %dh,0x302e342e(%rip)        # 302e3459 <hgr_compute_sparse_task+0x302e3344>
  2b:	20 32                	and    %dh,(%rdx)
  2d:	30 31                	xor    %dh,(%rcx)
  2f:	36 30 36             	xor    %dh,%ss:(%rsi)
  32:	30 39                	xor    %bh,(%rcx)
	...

Disassembly of section .eh_frame:

0000000000000000 <.eh_frame>:
   0:	14 00                	adc    $0x0,%al
   2:	00 00                	add    %al,(%rax)
   4:	00 00                	add    %al,(%rax)
   6:	00 00                	add    %al,(%rax)
   8:	01 7a 52             	add    %edi,0x52(%rdx)
   b:	00 01                	add    %al,(%rcx)
   d:	78 10                	js     1f <.eh_frame+0x1f>
   f:	01 1b                	add    %ebx,(%rbx)
  11:	0c 07                	or     $0x7,%al
  13:	08 90 01 00 00 1c    	or     %dl,0x1c000001(%rax)
  19:	00 00                	add    %al,(%rax)
  1b:	00 1c 00             	add    %bl,(%rax,%rax,1)
  1e:	00 00                	add    %al,(%rax)
  20:	00 00                	add    %al,(%rax)
  22:	00 00                	add    %al,(%rax)
  24:	e9 00 00 00 00       	jmpq   29 <.eh_frame+0x29>
  29:	41 0e                	rex.B (bad) 
  2b:	10 86 02 43 0d 06    	adc    %al,0x60d4302(%rsi)
  31:	02 e4                	add    %ah,%ah
  33:	0c 07                	or     $0x7,%al
  35:	08 00                	or     %al,(%rax)
  37:	00 1c 00             	add    %bl,(%rax,%rax,1)
  3a:	00 00                	add    %al,(%rax)
  3c:	3c 00                	cmp    $0x0,%al
  3e:	00 00                	add    %al,(%rax)
  40:	00 00                	add    %al,(%rax)
  42:	00 00                	add    %al,(%rax)
  44:	2c 00                	sub    $0x0,%al
  46:	00 00                	add    %al,(%rax)
  48:	00 41 0e             	add    %al,0xe(%rcx)
  4b:	10 86 02 43 0d 06    	adc    %al,0x60d4302(%rsi)
  51:	67 0c 07             	addr32 or $0x7,%al
  54:	08 00                	or     %al,(%rax)
  56:	00 00                	add    %al,(%rax)
  58:	1c 00                	sbb    $0x0,%al
  5a:	00 00                	add    %al,(%rax)
  5c:	5c                   	pop    %rsp
  5d:	00 00                	add    %al,(%rax)
  5f:	00 00                	add    %al,(%rax)
  61:	00 00                	add    %al,(%rax)
  63:	00 9d 02 00 00 00    	add    %bl,0x2(%rbp)
  69:	41 0e                	rex.B (bad) 
  6b:	10 86 02 43 0d 06    	adc    %al,0x60d4302(%rsi)
  71:	03 98 02 0c 07 08    	add    0x8070c02(%rax),%ebx
	...
